target datalayout = "e-m:e-p270:32:32-p271:32:32-p272:64:64-i64:64-i128:128-f80:128-n8:16:32:64-S128"
target triple = "x86_64-pc-linux-gnu"

%struct.cli_ctx_tag = type { ptr, ptr, ptr, ptr, ptr, ptr, ptr, i64, ptr, i32, i32, ptr, i32, i32, ptr, [16 x i8], ptr, ptr, ptr, ptr, ptr, ptr, %struct.timeval, i8, i8 }
%struct.timeval = type { i64, i64 }
%struct.cl_engine = type { i32, i32, i32, [2 x i32], i32, i32, i32, ptr, i32, i64, i32, i32, i64, i64, i32, i32, i32, i32, ptr, ptr, ptr, ptr, ptr, ptr, ptr, ptr, ptr, ptr, ptr, ptr, ptr, ptr, ptr, ptr, ptr, ptr, ptr, i64, ptr, %struct.crtmgr, ptr, ptr, ptr, ptr, ptr, ptr, ptr, ptr, ptr, ptr, ptr, ptr, ptr, ptr, ptr, ptr, ptr, %struct.cli_all_bc, [7 x ptr], [7 x i32], i32, i32, i32, i32, i64, i64, i64, i64, i64, ptr, ptr, ptr, ptr, ptr, ptr, ptr, ptr, ptr, i32, i32, i32, i64, i64, i64, ptr }
%struct.crtmgr = type { ptr, i32 }
%struct.cli_all_bc = type { ptr, i32, ptr, %struct.cli_environment, i32 }
%struct.cli_environment = type { i32, i32, i32, i32, i32, i32, i32, [65 x i8], [65 x i8], [65 x i8], [65 x i8], [65 x i8], [65 x i8], [65 x i8], i8, i8, i8, i8, i8, i8, i8, i8, i8 }

@.str.227 = private unnamed_addr constant [14 x i8] c"uuencoded-tmp\00", align 1
@.str.228 = private unnamed_addr constant [56 x i8] c"Can't create temporary directory for uuencoded file %s\0A\00", align 1

; Function Attrs: nounwind uwtable
define internal i32 @cli_scanuuencoded(ptr noundef %0) #0 {
  %2 = alloca i32, align 4
  %3 = alloca ptr, align 8
  %4 = alloca i32, align 4
  %5 = alloca ptr, align 8
  store ptr %0, ptr %3, align 8
  %6 = load ptr, ptr %3, align 8
  %7 = getelementptr inbounds %struct.cli_ctx_tag, ptr %6, i32 0, i32 2
  %8 = load ptr, ptr %7, align 8
  %9 = call ptr @cli_gentemp_with_prefix(ptr noundef %8, ptr noundef @.str.227)
  store ptr %9, ptr %5, align 8
  %10 = load ptr, ptr %5, align 8
  %11 = icmp ne ptr %10, null
  br i1 %11, label %13, label %12

12:                                               ; preds = %1
  store i32 20, ptr %2, align 4
  br label %45

13:                                               ; preds = %1
  %14 = load ptr, ptr %5, align 8
  %15 = call i32 @mkdir(ptr noundef %14, i32 noundef 448) #11
  %16 = icmp ne i32 %15, 0
  br i1 %16, label %17, label %20

17:                                               ; preds = %13
  %18 = load ptr, ptr %5, align 8
  call void (ptr, ...) @cli_dbgmsg(ptr noundef @.str.228, ptr noundef %18)
  %19 = load ptr, ptr %5, align 8
  call void @free(ptr noundef %19) #11
  store i32 18, ptr %2, align 4
  br label %45

20:                                               ; preds = %13
  %21 = load ptr, ptr %5, align 8
  %22 = load ptr, ptr %3, align 8
  %23 = getelementptr inbounds %struct.cli_ctx_tag, ptr %22, i32 0, i32 14
  %24 = load ptr, ptr %23, align 8
  %25 = call i32 @cli_uuencode(ptr noundef %21, ptr noundef %24)
  store i32 %25, ptr %4, align 4
  %26 = load i32, ptr %4, align 4
  %27 = icmp eq i32 %26, 0
  br i1 %27, label %28, label %32

28:                                               ; preds = %20
  %29 = load ptr, ptr %5, align 8
  %30 = load ptr, ptr %3, align 8
  %31 = call i32 @cli_magic_scan_dir(ptr noundef %29, ptr noundef %30, i32 noundef 0)
  store i32 %31, ptr %4, align 4
  br label %32

32:                                               ; preds = %28, %20
  %33 = load ptr, ptr %3, align 8
  %34 = getelementptr inbounds %struct.cli_ctx_tag, ptr %33, i32 0, i32 6
  %35 = load ptr, ptr %34, align 8
  %36 = getelementptr inbounds %struct.cl_engine, ptr %35, i32 0, i32 8
  %37 = load i32, ptr %36, align 8
  %38 = icmp ne i32 %37, 0
  br i1 %38, label %42, label %39

39:                                               ; preds = %32
  %40 = load ptr, ptr %5, align 8
  %41 = call i32 @cli_rmdirs(ptr noundef %40)
  br label %42

42:                                               ; preds = %39, %32
  %43 = load ptr, ptr %5, align 8
  call void @free(ptr noundef %43) #11
  %44 = load i32, ptr %4, align 4
  store i32 %44, ptr %2, align 4
  br label %45

45:                                               ; preds = %42, %17, %12
  %46 = load i32, ptr %2, align 4
  ret i32 %46
}