; Function Attrs: nounwind uwtable
define internal fastcc i32 @cli_scanuuencoded(ptr noundef %0) unnamed_addr #0 {
  %2 = getelementptr inbounds nuw i8, ptr %0, i64 16
  %3 = load ptr, ptr %2, align 8
  %4 = tail call ptr @cli_gentemp_with_prefix(ptr noundef %3, ptr noundef nonnull @.str.227) #16
  %.not = icmp eq ptr %4, null
  br i1 %.not, label %22, label %5

5:                                                ; preds = %1
  %6 = tail call i32 @mkdir(ptr noundef nonnull %4, i32 noundef 448) #16
  %.not17 = icmp eq i32 %6, 0
  br i1 %.not17, label %8, label %7

7:                                                ; preds = %5
  tail call void (ptr, ...) @cli_dbgmsg(ptr noundef nonnull @.str.228, ptr noundef nonnull %4) #16
  br label %.sink.split

8:                                                ; preds = %5
  %9 = getelementptr inbounds nuw i8, ptr %0, i64 96
  %10 = load ptr, ptr %9, align 8
  %11 = tail call i32 @cli_uuencode(ptr noundef nonnull %4, ptr noundef %10) #16
  %12 = icmp eq i32 %11, 0
  br i1 %12, label %13, label %15

13:                                               ; preds = %8
  %14 = tail call i32 @cli_magic_scan_dir(ptr noundef nonnull %4, ptr noundef nonnull %0, i32 noundef 0)
  br label %15

15:                                               ; preds = %13, %8
  %.014 = phi i32 [ %14, %13 ], [ %11, %8 ]
  %16 = getelementptr inbounds nuw i8, ptr %0, i64 48
  %17 = load ptr, ptr %16, align 8
  %18 = getelementptr inbounds nuw i8, ptr %17, i64 40
  %19 = load i32, ptr %18, align 8
  %.not18 = icmp eq i32 %19, 0
  br i1 %.not18, label %20, label %.sink.split

20:                                               ; preds = %15
  %21 = tail call i32 @cli_rmdirs(ptr noundef nonnull %4) #16
  br label %.sink.split

.sink.split:                                      ; preds = %15, %20, %7
  %.0.ph = phi i32 [ 18, %7 ], [ %.014, %20 ], [ %.014, %15 ]
  tail call void @free(ptr noundef nonnull %4) #16
  br label %22

22:                                               ; preds = %.sink.split, %1
  %.0 = phi i32 [ 20, %1 ], [ %.0.ph, %.sink.split ]
  ret i32 %.0
}